	.arch armv8-a
	.file	"call.cc"
	.text
	.section	.text.startup,"ax",@progbits
	.align	2
	.p2align 4,,11
	.global	main
	.type	main, %function
main:
.LFB1592:
	.cfi_startproc
	stp	x29, x30, [sp, -16]!
	.cfi_def_cfa_offset 16
	.cfi_offset 29, -16
	.cfi_offset 30, -8
	mov	x0, 3
	mov	x29, sp
	bl	_Z1fm
	mov	x1, x0
	adrp	x2, :got:_ZSt4cout
	ldr	x0, [x2, #:got_lo12:_ZSt4cout]
	bl	_ZNSo9_M_insertImEERSoT_
	mov	w0, 0
	ldp	x29, x30, [sp], 16
	.cfi_restore 30
	.cfi_restore 29
	.cfi_def_cfa_offset 0
	ret
	.cfi_endproc
.LFE1592:
	.size	main, .-main
	.align	2
	.p2align 4,,11
	.type	_GLOBAL__sub_I_main, %function
_GLOBAL__sub_I_main:
.LFB2086:
	.cfi_startproc
	stp	x29, x30, [sp, -32]!
	.cfi_def_cfa_offset 32
	.cfi_offset 29, -32
	.cfi_offset 30, -24
	mov	x29, sp
	str	x19, [sp, 16]
	.cfi_offset 19, -16
	adrp	x19, .LANCHOR0
	add	x19, x19, :lo12:.LANCHOR0
	mov	x0, x19
	bl	_ZNSt8ios_base4InitC1Ev
	mov	x1, x19
	adrp	x0, :got:_ZNSt8ios_base4InitD1Ev
	ldr	x19, [sp, 16]
	adrp	x2, __dso_handle
	ldp	x29, x30, [sp], 32
	.cfi_restore 30
	.cfi_restore 29
	.cfi_restore 19
	.cfi_def_cfa_offset 0
	add	x2, x2, :lo12:__dso_handle
	ldr	x0, [x0, #:got_lo12:_ZNSt8ios_base4InitD1Ev]
	b	__cxa_atexit
	.cfi_endproc
.LFE2086:
	.size	_GLOBAL__sub_I_main, .-_GLOBAL__sub_I_main
	.section	.init_array,"aw"
	.align	3
	.xword	_GLOBAL__sub_I_main
	.bss
	.align	3
	.set	.LANCHOR0,. + 0
	.type	_ZStL8__ioinit, %object
	.size	_ZStL8__ioinit, 1
_ZStL8__ioinit:
	.zero	1
	.hidden	__dso_handle
	.ident	"GCC: (Debian 10.2.1-6) 10.2.1 20210110"
	.section	.note.GNU-stack,"",@progbits
